target datalayout = "e-m:e-p270:32:32-p271:32:32-p272:64:64-i64:64-i128:128-f80:128-n8:16:32:64-S128"
target triple = "x86_64-pc-linux-gnu"

%"struct.google::protobuf::internal::ExtensionInfo" = type { ptr, i32, i8, i8, i8, %union.anon, ptr }
%union.anon = type { %"struct.google::protobuf::internal::ExtensionInfo::EnumValidityCheck" }
%"struct.google::protobuf::internal::ExtensionInfo::EnumValidityCheck" = type { ptr, ptr }
%"class.google::protobuf::internal::LogMessage" = type { i32, ptr, i32, %"class.std::__cxx11::basic_string" }
%"class.std::__cxx11::basic_string" = type { %"struct.std::__cxx11::basic_string<char>::_Alloc_hider", i64, %union.anon.0 }
%"struct.std::__cxx11::basic_string<char>::_Alloc_hider" = type { ptr }
%union.anon.0 = type { i64, [8 x i8] }
%"class.google::protobuf::internal::LogFinisher" = type { i8 }

@.str = private unnamed_addr constant [146 x i8] c"generated/home/dtcxzyw/WorkSpace/Projects/compilers/llvm-opt-benchmark/bench/opencv/opencv/3rdparty/protobuf/src/google/protobuf/extension_set.cc\00", align 1
@_ZN6google8protobuf8internal14WireFormatLite21kWireTypeForFieldTypeE = external constant [0 x i32], align 4
@.str.50 = private unnamed_addr constant [67 x i8] c"CHECK failed: type > 0 && type <= WireFormatLite::MAX_FIELD_TYPE: \00", align 1
@.str.51 = private unnamed_addr constant [18 x i8] c"can't reach here.\00", align 1

; Function Attrs: inlinehint mustprogress uwtable
define internal noundef zeroext i1 @_ZN6google8protobuf8internal12_GLOBAL__N_111is_packableENS1_14WireFormatLite8WireTypeE(i32 noundef %0) #13 personality ptr @__gxx_personality_v0 {
  %2 = alloca i1, align 1
  %3 = alloca i32, align 4
  %4 = alloca %"class.google::protobuf::internal::LogMessage", align 8
  %5 = alloca ptr, align 8
  %6 = alloca i32, align 4
  %7 = alloca %"class.google::protobuf::internal::LogFinisher", align 1
  store i32 %0, ptr %3, align 4, !tbaa !401
  %8 = load i32, ptr %3, align 4, !tbaa !401
  switch i32 %8, label %11 [
    i32 0, label %9
    i32 1, label %9
    i32 5, label %9
    i32 2, label %10
    i32 3, label %10
    i32 4, label %10
  ]

9:                                                ; preds = %1, %1, %1
  store i1 true, ptr %2, align 1
  br label %24

10:                                               ; preds = %1, %1, %1
  store i1 false, ptr %2, align 1
  br label %24

11:                                               ; preds = %1
  call void @llvm.lifetime.start.p0(i64 56, ptr %4) #3
  call void @_ZN6google8protobuf8internal10LogMessageC1ENS0_8LogLevelEPKci(ptr noundef nonnull align 8 dereferenceable(56) %4, i32 noundef 3, ptr noundef @.str, i32 noundef 85)
  %12 = invoke noundef nonnull align 8 dereferenceable(56) ptr @_ZN6google8protobuf8internal10LogMessagelsEPKc(ptr noundef nonnull align 8 dereferenceable(56) %4, ptr noundef @.str.51)
          to label %13 unwind label %15

13:                                               ; preds = %11
  call void @llvm.lifetime.start.p0(i64 1, ptr %7) #3
  invoke void @_ZN6google8protobuf8internal11LogFinisheraSERNS1_10LogMessageE(ptr noundef nonnull align 1 dereferenceable(1) %7, ptr noundef nonnull align 8 dereferenceable(56) %12)
          to label %14 unwind label %19

14:                                               ; preds = %13
  call void @llvm.lifetime.end.p0(i64 1, ptr %7) #3
  call void @_ZN6google8protobuf8internal10LogMessageD1Ev(ptr noundef nonnull align 8 dereferenceable(56) %4) #3
  call void @llvm.lifetime.end.p0(i64 56, ptr %4) #3
  store i1 false, ptr %2, align 1
  br label %24

15:                                               ; preds = %11
  %16 = landingpad { ptr, i32 }
          cleanup
  %17 = extractvalue { ptr, i32 } %16, 0
  store ptr %17, ptr %5, align 8
  %18 = extractvalue { ptr, i32 } %16, 1
  store i32 %18, ptr %6, align 4
  br label %23

19:                                               ; preds = %13
  %20 = landingpad { ptr, i32 }
          cleanup
  %21 = extractvalue { ptr, i32 } %20, 0
  store ptr %21, ptr %5, align 8
  %22 = extractvalue { ptr, i32 } %20, 1
  store i32 %22, ptr %6, align 4
  call void @llvm.lifetime.end.p0(i64 1, ptr %7) #3
  br label %23

23:                                               ; preds = %19, %15
  call void @_ZN6google8protobuf8internal10LogMessageD1Ev(ptr noundef nonnull align 8 dereferenceable(56) %4) #3
  call void @llvm.lifetime.end.p0(i64 56, ptr %4) #3
  br label %26

24:                                               ; preds = %14, %10, %9
  %25 = load i1, ptr %2, align 1
  ret i1 %25

26:                                               ; preds = %23
  %27 = load ptr, ptr %5, align 8
  %28 = load i32, ptr %6, align 4
  %29 = insertvalue { ptr, i32 } poison, ptr %27, 0
  %30 = insertvalue { ptr, i32 } %29, i32 %28, 1
  resume { ptr, i32 } %30
}

; Function Attrs: inlinehint mustprogress nounwind uwtable
define linkonce_odr hidden noundef i32 @_ZN6google8protobuf8internal14WireFormatLite20WireTypeForFieldTypeENS2_9FieldTypeE(i32 noundef %0) #14 comdat align 2 {
  %2 = alloca i32, align 4
  store i32 %0, ptr %2, align 4, !tbaa !271
  %3 = load i32, ptr %2, align 4, !tbaa !271
  %4 = zext i32 %3 to i64
  %5 = getelementptr inbounds nuw [0 x i32], ptr @_ZN6google8protobuf8internal14WireFormatLite21kWireTypeForFieldTypeE, i64 0, i64 %4
  %6 = load i32, ptr %5, align 4, !tbaa !401
  ret i32 %6
}

; Function Attrs: inlinehint mustprogress uwtable
define internal noundef i32 @_ZN6google8protobuf8internal12_GLOBAL__N_19real_typeEh(i8 noundef zeroext %0) #13 personality ptr @__gxx_personality_v0 {
  %2 = alloca i8, align 1
  %3 = alloca %"class.google::protobuf::internal::LogMessage", align 8
  %4 = alloca i1, align 1
  %5 = alloca i1, align 1
  %6 = alloca ptr, align 8
  %7 = alloca i32, align 4
  %8 = alloca %"class.google::protobuf::internal::LogFinisher", align 1
  store i8 %0, ptr %2, align 1, !tbaa !20
  br label %9

9:                                                ; preds = %29, %1
  br i1 false, label %10, label %45

10:                                               ; preds = %9
  %11 = load i8, ptr %2, align 1, !tbaa !20
  %12 = zext i8 %11 to i32
  %13 = icmp sgt i32 %12, 0
  store i1 false, ptr %4, align 1
  store i1 false, ptr %5, align 1
  call void @llvm.lifetime.start.p0(i64 1, ptr %8) #3
  br i1 %13, label %14, label %19

14:                                               ; preds = %10
  %15 = load i8, ptr %2, align 1, !tbaa !20
  %16 = zext i8 %15 to i32
  %17 = icmp sle i32 %16, 18
  br i1 %17, label %18, label %19

18:                                               ; preds = %14
  br label %23

19:                                               ; preds = %14, %10
  call void @llvm.lifetime.start.p0(i64 56, ptr %3) #3
  store i1 true, ptr %4, align 1
  call void @_ZN6google8protobuf8internal10LogMessageC1ENS0_8LogLevelEPKci(ptr noundef nonnull align 8 dereferenceable(56) %3, i32 noundef 3, ptr noundef @.str, i32 noundef 63)
  store i1 true, ptr %5, align 1
  %20 = invoke noundef nonnull align 8 dereferenceable(56) ptr @_ZN6google8protobuf8internal10LogMessagelsEPKc(ptr noundef nonnull align 8 dereferenceable(56) %3, ptr noundef @.str.50)
          to label %21 unwind label %30

21:                                               ; preds = %19
  invoke void @_ZN6google8protobuf8internal11LogFinisheraSERNS1_10LogMessageE(ptr noundef nonnull align 1 dereferenceable(1) %8, ptr noundef nonnull align 8 dereferenceable(56) %20)
          to label %22 unwind label %34

22:                                               ; preds = %21
  br label %23

23:                                               ; preds = %22, %18
  call void @llvm.lifetime.end.p0(i64 1, ptr %8) #3
  %24 = load i1, ptr %5, align 1
  br i1 %24, label %25, label %26

25:                                               ; preds = %23
  call void @_ZN6google8protobuf8internal10LogMessageD1Ev(ptr noundef nonnull align 8 dereferenceable(56) %3) #3
  br label %26

26:                                               ; preds = %25, %23
  %27 = load i1, ptr %4, align 1
  br i1 %27, label %28, label %29

28:                                               ; preds = %26
  call void @llvm.lifetime.end.p0(i64 56, ptr %3) #3
  br label %29

29:                                               ; preds = %28, %26
  br label %9, !llvm.loop !403

30:                                               ; preds = %19
  %31 = landingpad { ptr, i32 }
          cleanup
  %32 = extractvalue { ptr, i32 } %31, 0
  store ptr %32, ptr %6, align 8
  %33 = extractvalue { ptr, i32 } %31, 1
  store i32 %33, ptr %7, align 4
  br label %38

34:                                               ; preds = %21
  %35 = landingpad { ptr, i32 }
          cleanup
  %36 = extractvalue { ptr, i32 } %35, 0
  store ptr %36, ptr %6, align 8
  %37 = extractvalue { ptr, i32 } %35, 1
  store i32 %37, ptr %7, align 4
  call void @llvm.lifetime.end.p0(i64 1, ptr %8) #3
  br label %38

38:                                               ; preds = %34, %30
  %39 = load i1, ptr %5, align 1
  br i1 %39, label %40, label %41

40:                                               ; preds = %38
  call void @_ZN6google8protobuf8internal10LogMessageD1Ev(ptr noundef nonnull align 8 dereferenceable(56) %3) #3
  br label %41

41:                                               ; preds = %40, %38
  %42 = load i1, ptr %4, align 1
  br i1 %42, label %43, label %44

43:                                               ; preds = %41
  call void @llvm.lifetime.end.p0(i64 56, ptr %3) #3
  br label %44

44:                                               ; preds = %43, %41
  br label %48

45:                                               ; preds = %9
  %46 = load i8, ptr %2, align 1, !tbaa !20
  %47 = zext i8 %46 to i32
  ret i32 %47

48:                                               ; preds = %44
  %49 = load ptr, ptr %6, align 8
  %50 = load i32, ptr %7, align 4
  %51 = insertvalue { ptr, i32 } poison, ptr %49, 0
  %52 = insertvalue { ptr, i32 } %51, i32 %50, 1
  resume { ptr, i32 } %52
}

; Function Attrs: mustprogress uwtable
define hidden noundef zeroext i1 @_ZNK6google8protobuf8internal12ExtensionSet32FindExtensionInfoFromFieldNumberEiiPNS1_15ExtensionFinderEPNS1_13ExtensionInfoEPb(ptr noundef nonnull align 8 dereferenceable(24) %0, i32 noundef %1, i32 noundef %2, ptr noundef %3, ptr noundef %4, ptr noundef %5) #6 align 2 {
  %7 = alloca i1, align 1
  %8 = alloca ptr, align 8
  %9 = alloca i32, align 4
  %10 = alloca i32, align 4
  %11 = alloca ptr, align 8
  %12 = alloca ptr, align 8
  %13 = alloca ptr, align 8
  %14 = alloca i32, align 4
  %15 = alloca i32, align 4
  store ptr %0, ptr %8, align 8, !tbaa !43
  store i32 %1, ptr %9, align 4, !tbaa !10
  store i32 %2, ptr %10, align 4, !tbaa !10
  store ptr %3, ptr %11, align 8, !tbaa !3
  store ptr %4, ptr %12, align 8, !tbaa !12
  store ptr %5, ptr %13, align 8, !tbaa !245
  %16 = load ptr, ptr %11, align 8, !tbaa !3
  %17 = load i32, ptr %10, align 4, !tbaa !10
  %18 = load ptr, ptr %12, align 8, !tbaa !12
  %19 = load ptr, ptr %16, align 8, !tbaa !37
  %20 = getelementptr inbounds ptr, ptr %19, i64 2
  %21 = load ptr, ptr %20, align 8
  %22 = call noundef zeroext i1 %21(ptr noundef nonnull align 8 dereferenceable(8) %16, i32 noundef %17, ptr noundef %18)
  br i1 %22, label %24, label %23

23:                                               ; preds = %6
  store i1 false, ptr %7, align 1
  br label %48

24:                                               ; preds = %6
  call void @llvm.lifetime.start.p0(i64 4, ptr %14) #3
  %25 = load ptr, ptr %12, align 8, !tbaa !12
  %26 = getelementptr inbounds nuw %"struct.google::protobuf::internal::ExtensionInfo", ptr %25, i32 0, i32 2
  %27 = load i8, ptr %26, align 4, !tbaa !32
  %28 = call noundef i32 @_ZN6google8protobuf8internal12_GLOBAL__N_19real_typeEh(i8 noundef zeroext %27)
  %29 = call noundef i32 @_ZN6google8protobuf8internal14WireFormatLite20WireTypeForFieldTypeENS2_9FieldTypeE(i32 noundef %28)
  store i32 %29, ptr %14, align 4, !tbaa !401
  %30 = load ptr, ptr %13, align 8, !tbaa !245
  store i8 0, ptr %30, align 1, !tbaa !21
  %31 = load ptr, ptr %12, align 8, !tbaa !12
  %32 = getelementptr inbounds nuw %"struct.google::protobuf::internal::ExtensionInfo", ptr %31, i32 0, i32 3
  %33 = load i8, ptr %32, align 1, !tbaa !33, !range !30, !noundef !31
  %34 = trunc i8 %33 to i1
  br i1 %34, label %35, label %43

35:                                               ; preds = %24
  %36 = load i32, ptr %9, align 4, !tbaa !10
  %37 = icmp eq i32 %36, 2
  br i1 %37, label %38, label %43

38:                                               ; preds = %35
  %39 = load i32, ptr %14, align 4, !tbaa !401
  %40 = call noundef zeroext i1 @_ZN6google8protobuf8internal12_GLOBAL__N_111is_packableENS1_14WireFormatLite8WireTypeE(i32 noundef %39)
  br i1 %40, label %41, label %43

41:                                               ; preds = %38
  %42 = load ptr, ptr %13, align 8, !tbaa !245
  store i8 1, ptr %42, align 1, !tbaa !21
  store i1 true, ptr %7, align 1
  store i32 1, ptr %15, align 4
  br label %47

43:                                               ; preds = %38, %35, %24
  %44 = load i32, ptr %14, align 4, !tbaa !401
  %45 = load i32, ptr %9, align 4, !tbaa !10
  %46 = icmp eq i32 %44, %45
  store i1 %46, ptr %7, align 1
  store i32 1, ptr %15, align 4
  br label %47

47:                                               ; preds = %43, %41
  call void @llvm.lifetime.end.p0(i64 4, ptr %14) #3
  br label %48

48:                                               ; preds = %47, %23
  %49 = load i1, ptr %7, align 1
  ret i1 %49
}