; Function Attrs: mustprogress uwtable
define hidden noundef zeroext i1 @_ZNK6google8protobuf8internal12ExtensionSet32FindExtensionInfoFromFieldNumberEiiPNS1_15ExtensionFinderEPNS1_13ExtensionInfoEPb(ptr nonnull readnone align 8 captures(none) %0, i32 noundef %1, i32 noundef %2, ptr noundef %3, ptr noundef %4, ptr noundef writeonly captures(none) %5) local_unnamed_addr #8 align 2 personality ptr @__gxx_personality_v0 {
  %7 = alloca %"class.google::protobuf::internal::LogMessage", align 8
  %8 = alloca %"class.google::protobuf::internal::LogFinisher", align 1
  %9 = load ptr, ptr %3, align 8, !tbaa !54
  %10 = getelementptr inbounds nuw i8, ptr %9, i64 16
  %11 = load ptr, ptr %10, align 8
  %12 = tail call noundef zeroext i1 %11(ptr noundef nonnull align 8 dereferenceable(8) %3, i32 noundef %2, ptr noundef %4)
  br i1 %12, label %13, label %34

13:                                               ; preds = %6
  %14 = getelementptr inbounds nuw i8, ptr %4, i64 12
  %15 = load i8, ptr %14, align 4, !tbaa !42
  %16 = zext i8 %15 to i64
  %17 = getelementptr inbounds nuw [0 x i32], ptr @_ZN6google8protobuf8internal14WireFormatLite21kWireTypeForFieldTypeE, i64 0, i64 %16
  %18 = load i32, ptr %17, align 4, !tbaa !163
  store i8 0, ptr %5, align 1, !tbaa !39
  %19 = getelementptr inbounds nuw i8, ptr %4, i64 13
  %20 = load i8, ptr %19, align 1, !tbaa !43, !range !104, !noundef !80
  %21 = trunc nuw i8 %20 to i1
  %22 = icmp eq i32 %1, 2
  %or.cond = and i1 %22, %21
  br i1 %or.cond, label %23, label %_ZN6google8protobuf8internal12_GLOBAL__N_111is_packableENS1_14WireFormatLite8WireTypeE.exit.thread

23:                                               ; preds = %13
  switch i32 %18, label %24 [
    i32 0, label %_ZN6google8protobuf8internal12_GLOBAL__N_111is_packableENS1_14WireFormatLite8WireTypeE.exit
    i32 1, label %_ZN6google8protobuf8internal12_GLOBAL__N_111is_packableENS1_14WireFormatLite8WireTypeE.exit
    i32 5, label %_ZN6google8protobuf8internal12_GLOBAL__N_111is_packableENS1_14WireFormatLite8WireTypeE.exit
    i32 2, label %_ZN6google8protobuf8internal12_GLOBAL__N_111is_packableENS1_14WireFormatLite8WireTypeE.exit.thread
    i32 3, label %_ZN6google8protobuf8internal12_GLOBAL__N_111is_packableENS1_14WireFormatLite8WireTypeE.exit.thread
    i32 4, label %_ZN6google8protobuf8internal12_GLOBAL__N_111is_packableENS1_14WireFormatLite8WireTypeE.exit.thread
  ]

24:                                               ; preds = %23
  call void @llvm.lifetime.start.p0(i64 56, ptr nonnull %7) #30
  call void @_ZN6google8protobuf8internal10LogMessageC1ENS0_8LogLevelEPKci(ptr noundef nonnull align 8 dereferenceable(56) %7, i32 noundef 3, ptr noundef nonnull @.str, i32 noundef 85)
  %25 = invoke noundef nonnull align 8 dereferenceable(56) ptr @_ZN6google8protobuf8internal10LogMessagelsEPKc(ptr noundef nonnull align 8 dereferenceable(56) %7, ptr noundef nonnull @.str.51)
          to label %26 unwind label %28

26:                                               ; preds = %24
  call void @llvm.lifetime.start.p0(i64 1, ptr nonnull %8) #30
  invoke void @_ZN6google8protobuf8internal11LogFinisheraSERNS1_10LogMessageE(ptr noundef nonnull align 1 dereferenceable(1) %8, ptr noundef nonnull align 8 dereferenceable(56) %25)
          to label %27 unwind label %30

27:                                               ; preds = %26
  call void @llvm.lifetime.end.p0(i64 1, ptr nonnull %8) #30
  call void @_ZN6google8protobuf8internal10LogMessageD1Ev(ptr noundef nonnull align 8 dereferenceable(56) %7) #30
  call void @llvm.lifetime.end.p0(i64 56, ptr nonnull %7) #30
  br label %_ZN6google8protobuf8internal12_GLOBAL__N_111is_packableENS1_14WireFormatLite8WireTypeE.exit.thread

28:                                               ; preds = %24
  %29 = landingpad { ptr, i32 }
          cleanup
  br label %32

30:                                               ; preds = %26
  %31 = landingpad { ptr, i32 }
          cleanup
  call void @llvm.lifetime.end.p0(i64 1, ptr nonnull %8) #30
  br label %32

32:                                               ; preds = %30, %28
  %.pn.i = phi { ptr, i32 } [ %31, %30 ], [ %29, %28 ]
  call void @_ZN6google8protobuf8internal10LogMessageD1Ev(ptr noundef nonnull align 8 dereferenceable(56) %7) #30
  call void @llvm.lifetime.end.p0(i64 56, ptr nonnull %7) #30
  resume { ptr, i32 } %.pn.i

_ZN6google8protobuf8internal12_GLOBAL__N_111is_packableENS1_14WireFormatLite8WireTypeE.exit: ; preds = %23, %23, %23
  store i8 1, ptr %5, align 1, !tbaa !39
  br label %34

_ZN6google8protobuf8internal12_GLOBAL__N_111is_packableENS1_14WireFormatLite8WireTypeE.exit.thread: ; preds = %23, %23, %23, %27, %13
  %33 = icmp eq i32 %18, %1
  br label %34

34:                                               ; preds = %_ZN6google8protobuf8internal12_GLOBAL__N_111is_packableENS1_14WireFormatLite8WireTypeE.exit, %_ZN6google8protobuf8internal12_GLOBAL__N_111is_packableENS1_14WireFormatLite8WireTypeE.exit.thread, %6
  %.0 = phi i1 [ false, %6 ], [ true, %_ZN6google8protobuf8internal12_GLOBAL__N_111is_packableENS1_14WireFormatLite8WireTypeE.exit ], [ %33, %_ZN6google8protobuf8internal12_GLOBAL__N_111is_packableENS1_14WireFormatLite8WireTypeE.exit.thread ]
  ret i1 %.0
}